target datalayout = "e-m:e-p270:32:32-p271:32:32-p272:64:64-i64:64-i128:128-f80:128-n8:16:32:64-S128"
target triple = "x86_64-pc-linux-gnu"

%struct.ma_context = type { %struct.ma_backend_callbacks, i32, ptr, %struct.ma_log, i32, i64, ptr, %struct.ma_allocation_callbacks, %union.pthread_mutex_t, %union.pthread_mutex_t, i32, i32, i32, ptr, %union.anon.36, %union.anon.41 }
%struct.ma_backend_callbacks = type { ptr, ptr, ptr, ptr, ptr, ptr, ptr, ptr, ptr, ptr, ptr, ptr, ptr }
%struct.ma_log = type { [4 x %struct.ma_log_callback], i32, %struct.ma_allocation_callbacks, %union.pthread_mutex_t }
%struct.ma_log_callback = type { ptr, ptr }
%struct.ma_allocation_callbacks = type { ptr, ptr, ptr, ptr }
%union.anon.36 = type { %struct.anon.37 }
%struct.anon.37 = type { ptr, ptr, ptr, ptr, ptr, ptr, ptr, ptr, ptr, ptr, ptr, ptr, ptr, ptr, ptr, ptr, ptr, ptr, ptr, ptr, ptr, ptr, ptr, ptr, ptr, ptr, ptr, ptr, ptr, ptr, ptr, ptr, ptr, ptr, ptr, ptr, ptr, ptr, ptr, ptr, ptr, ptr, ptr, ptr, ptr, ptr, ptr, ptr, ptr, ptr, ptr, ptr, ptr, ptr, ptr, ptr, ptr, ptr, ptr, ptr, ptr, ptr, ptr, ptr, ptr, ptr, ptr, %union.pthread_mutex_t, i32 }
%union.anon.41 = type { %struct.anon.42 }
%struct.anon.42 = type { i32 }
%union.pthread_mutex_t = type { %struct.__pthread_mutex_s }
%struct.__pthread_mutex_s = type { i32, i32, i32, i32, i32, i16, i16, %struct.__pthread_internal_list }
%struct.__pthread_internal_list = type { ptr, ptr }

; Function Attrs: nounwind uwtable
define internal i32 @ma_context_uninit_backend_apis__nix(ptr noundef %0) #0 {
  %2 = alloca ptr, align 8
  store ptr %0, ptr %2, align 8
  ret i32 0
}

; Function Attrs: nounwind uwtable
define internal void @ma__free_default(ptr noundef %0, ptr noundef %1) #0 {
  %3 = alloca ptr, align 8
  %4 = alloca ptr, align 8
  store ptr %0, ptr %3, align 8
  store ptr %1, ptr %4, align 8
  %5 = load ptr, ptr %3, align 8
  call void @free(ptr noundef %5) #21
  ret void
}

; Function Attrs: nounwind uwtable
define internal void @ma_mutex_uninit__posix(ptr noundef %0) #0 {
  %2 = alloca ptr, align 8
  store ptr %0, ptr %2, align 8
  %3 = load ptr, ptr %2, align 8
  %4 = call i32 @pthread_mutex_destroy(ptr noundef %3) #21
  ret void
}

; Function Attrs: nounwind uwtable
define hidden void @ma_log_uninit(ptr noundef %0) #0 {
  %2 = alloca ptr, align 8
  store ptr %0, ptr %2, align 8
  %3 = load ptr, ptr %2, align 8
  %4 = icmp eq ptr %3, null
  br i1 %4, label %5, label %6

5:                                                ; preds = %1
  br label %9

6:                                                ; preds = %1
  %7 = load ptr, ptr %2, align 8
  %8 = getelementptr inbounds nuw %struct.ma_log, ptr %7, i32 0, i32 3
  call void @ma_mutex_uninit(ptr noundef %8)
  br label %9

9:                                                ; preds = %6, %5
  ret void
}

; Function Attrs: nounwind uwtable
define internal i32 @ma_context_uninit_backend_apis(ptr noundef %0) #0 {
  %2 = alloca ptr, align 8
  %3 = alloca i32, align 4
  store ptr %0, ptr %2, align 8
  call void @llvm.lifetime.start.p0(i64 4, ptr %3) #21
  %4 = load ptr, ptr %2, align 8
  %5 = call i32 @ma_context_uninit_backend_apis__nix(ptr noundef %4)
  store i32 %5, ptr %3, align 4
  %6 = load i32, ptr %3, align 4
  call void @llvm.lifetime.end.p0(i64 4, ptr %3) #21
  ret i32 %6
}

; Function Attrs: nounwind uwtable
define hidden void @ma_free(ptr noundef %0, ptr noundef %1) #0 {
  %3 = alloca ptr, align 8
  %4 = alloca ptr, align 8
  store ptr %0, ptr %3, align 8
  store ptr %1, ptr %4, align 8
  %5 = load ptr, ptr %3, align 8
  %6 = icmp eq ptr %5, null
  br i1 %6, label %7, label %8

7:                                                ; preds = %2
  br label %28

8:                                                ; preds = %2
  %9 = load ptr, ptr %4, align 8
  %10 = icmp ne ptr %9, null
  br i1 %10, label %11, label %26

11:                                               ; preds = %8
  %12 = load ptr, ptr %4, align 8
  %13 = getelementptr inbounds nuw %struct.ma_allocation_callbacks, ptr %12, i32 0, i32 3
  %14 = load ptr, ptr %13, align 8
  %15 = icmp ne ptr %14, null
  br i1 %15, label %16, label %24

16:                                               ; preds = %11
  %17 = load ptr, ptr %4, align 8
  %18 = getelementptr inbounds nuw %struct.ma_allocation_callbacks, ptr %17, i32 0, i32 3
  %19 = load ptr, ptr %18, align 8
  %20 = load ptr, ptr %3, align 8
  %21 = load ptr, ptr %4, align 8
  %22 = getelementptr inbounds nuw %struct.ma_allocation_callbacks, ptr %21, i32 0, i32 0
  %23 = load ptr, ptr %22, align 8
  call void %19(ptr noundef %20, ptr noundef %23)
  br label %25

24:                                               ; preds = %11
  br label %28

25:                                               ; preds = %16
  br label %28

26:                                               ; preds = %8
  %27 = load ptr, ptr %3, align 8
  call void @ma__free_default(ptr noundef %27, ptr noundef null)
  br label %28

28:                                               ; preds = %7, %24, %26, %25
  ret void
}

; Function Attrs: nounwind uwtable
define hidden void @ma_mutex_uninit(ptr noundef %0) #0 {
  %2 = alloca ptr, align 8
  store ptr %0, ptr %2, align 8
  %3 = load ptr, ptr %2, align 8
  %4 = icmp eq ptr %3, null
  br i1 %4, label %5, label %6

5:                                                ; preds = %1
  br label %8

6:                                                ; preds = %1
  %7 = load ptr, ptr %2, align 8
  call void @ma_mutex_uninit__posix(ptr noundef %7)
  br label %8

8:                                                ; preds = %6, %5
  ret void
}

; Function Attrs: nounwind uwtable
define hidden i32 @ma_context_uninit(ptr noundef %0) #0 {
  %2 = alloca i32, align 4
  %3 = alloca ptr, align 8
  store ptr %0, ptr %3, align 8
  %4 = load ptr, ptr %3, align 8
  %5 = icmp eq ptr %4, null
  br i1 %5, label %6, label %7

6:                                                ; preds = %1
  store i32 -2, ptr %2, align 4
  br label %42

7:                                                ; preds = %1
  %8 = load ptr, ptr %3, align 8
  %9 = getelementptr inbounds nuw %struct.ma_context, ptr %8, i32 0, i32 0
  %10 = getelementptr inbounds nuw %struct.ma_backend_callbacks, ptr %9, i32 0, i32 1
  %11 = load ptr, ptr %10, align 8
  %12 = icmp ne ptr %11, null
  br i1 %12, label %13, label %20

13:                                               ; preds = %7
  %14 = load ptr, ptr %3, align 8
  %15 = getelementptr inbounds nuw %struct.ma_context, ptr %14, i32 0, i32 0
  %16 = getelementptr inbounds nuw %struct.ma_backend_callbacks, ptr %15, i32 0, i32 1
  %17 = load ptr, ptr %16, align 8
  %18 = load ptr, ptr %3, align 8
  %19 = call i32 %17(ptr noundef %18)
  br label %20

20:                                               ; preds = %13, %7
  %21 = load ptr, ptr %3, align 8
  %22 = getelementptr inbounds nuw %struct.ma_context, ptr %21, i32 0, i32 8
  call void @ma_mutex_uninit(ptr noundef %22)
  %23 = load ptr, ptr %3, align 8
  %24 = getelementptr inbounds nuw %struct.ma_context, ptr %23, i32 0, i32 9
  call void @ma_mutex_uninit(ptr noundef %24)
  %25 = load ptr, ptr %3, align 8
  %26 = getelementptr inbounds nuw %struct.ma_context, ptr %25, i32 0, i32 13
  %27 = load ptr, ptr %26, align 8
  %28 = load ptr, ptr %3, align 8
  %29 = getelementptr inbounds nuw %struct.ma_context, ptr %28, i32 0, i32 7
  call void @ma_free(ptr noundef %27, ptr noundef %29)
  %30 = load ptr, ptr %3, align 8
  %31 = call i32 @ma_context_uninit_backend_apis(ptr noundef %30)
  %32 = load ptr, ptr %3, align 8
  %33 = getelementptr inbounds nuw %struct.ma_context, ptr %32, i32 0, i32 2
  %34 = load ptr, ptr %33, align 8
  %35 = load ptr, ptr %3, align 8
  %36 = getelementptr inbounds nuw %struct.ma_context, ptr %35, i32 0, i32 3
  %37 = icmp eq ptr %34, %36
  br i1 %37, label %38, label %41

38:                                               ; preds = %20
  %39 = load ptr, ptr %3, align 8
  %40 = getelementptr inbounds nuw %struct.ma_context, ptr %39, i32 0, i32 3
  call void @ma_log_uninit(ptr noundef %40)
  br label %41

41:                                               ; preds = %38, %20
  store i32 0, ptr %2, align 4
  br label %42

42:                                               ; preds = %41, %6
  %43 = load i32, ptr %2, align 4
  ret i32 %43
}