; Function Attrs: nounwind uwtable
define hidden range(i32 -2, 1) i32 @ma_context_uninit(ptr noundef %0) local_unnamed_addr #7 {
  %2 = icmp eq ptr %0, null
  br i1 %2, label %29, label %3

3:                                                ; preds = %1
  %4 = getelementptr inbounds nuw i8, ptr %0, i64 8
  %5 = load ptr, ptr %4, align 8
  %.not = icmp eq ptr %5, null
  br i1 %.not, label %8, label %6

6:                                                ; preds = %3
  %7 = tail call i32 %5(ptr noundef nonnull %0) #72
  br label %8

8:                                                ; preds = %6, %3
  %9 = getelementptr inbounds nuw i8, ptr %0, i64 320
  %10 = tail call i32 @pthread_mutex_destroy(ptr noundef nonnull %9) #72
  %11 = getelementptr inbounds nuw i8, ptr %0, i64 360
  %12 = tail call i32 @pthread_mutex_destroy(ptr noundef nonnull %11) #72
  %13 = getelementptr inbounds nuw i8, ptr %0, i64 416
  %14 = load ptr, ptr %13, align 8
  %15 = getelementptr inbounds nuw i8, ptr %0, i64 288
  %16 = icmp eq ptr %14, null
  br i1 %16, label %ma_free.exit, label %17

17:                                               ; preds = %8
  %18 = getelementptr inbounds nuw i8, ptr %0, i64 312
  %19 = load ptr, ptr %18, align 8
  %.not9.i = icmp eq ptr %19, null
  br i1 %.not9.i, label %ma_free.exit, label %20

20:                                               ; preds = %17
  %21 = load ptr, ptr %15, align 8
  tail call void %19(ptr noundef nonnull %14, ptr noundef %21) #72
  br label %ma_free.exit

ma_free.exit:                                     ; preds = %8, %17, %20
  %22 = getelementptr inbounds nuw i8, ptr %0, i64 112
  %23 = load ptr, ptr %22, align 8
  %24 = getelementptr inbounds nuw i8, ptr %0, i64 120
  %25 = icmp eq ptr %23, %24
  br i1 %25, label %26, label %29

26:                                               ; preds = %ma_free.exit
  %27 = getelementptr inbounds nuw i8, ptr %0, i64 224
  %28 = tail call i32 @pthread_mutex_destroy(ptr noundef nonnull %27) #72
  br label %29

29:                                               ; preds = %ma_free.exit, %26, %1
  %.0 = phi i32 [ -2, %1 ], [ 0, %26 ], [ 0, %ma_free.exit ]
  ret i32 %.0
}